target datalayout = "e-m:e-p270:32:32-p271:32:32-p272:64:64-i64:64-i128:128-f80:128-n8:16:32:64-S128"
target triple = "x86_64-pc-linux-gnu"

%struct.ggml_backend_i = type { ptr, ptr, ptr, ptr, ptr, ptr, ptr, ptr, ptr, ptr, ptr, ptr, ptr }
%struct.ggml_backend = type { ptr, %struct.ggml_backend_i, ptr, ptr }

@_ZZL21ggml_backend_cpu_guidvE4guid = internal global [16 x i8] c"\AAg\C7C\96\E6\A3\8A\E3\AF\EA\926\BC\FC\89", align 16

; Function Attrs: mustprogress nounwind uwtable
define internal noundef ptr @_ZL21ggml_backend_cpu_guidv() #4 {
  ret ptr @_ZZL21ggml_backend_cpu_guidvE4guid
}

; Function Attrs: mustprogress uwtable
define zeroext i1 @ggml_backend_is_cpu(ptr noundef %0) #0 {
  %2 = alloca ptr, align 8
  store ptr %0, ptr %2, align 8, !tbaa !61
  %3 = load ptr, ptr %2, align 8, !tbaa !61
  %4 = icmp ne ptr %3, null
  br i1 %4, label %5, label %11

5:                                                ; preds = %1
  %6 = load ptr, ptr %2, align 8, !tbaa !61
  %7 = getelementptr inbounds nuw %struct.ggml_backend, ptr %6, i32 0, i32 0
  %8 = load ptr, ptr %7, align 8, !tbaa !54
  %9 = call noundef ptr @_ZL21ggml_backend_cpu_guidv()
  %10 = call zeroext i1 @ggml_guid_matches(ptr noundef %8, ptr noundef %9)
  br label %11

11:                                               ; preds = %5, %1
  %12 = phi i1 [ false, %1 ], [ %10, %5 ]
  ret i1 %12
}