; Function Attrs: mustprogress uwtable
define zeroext i1 @ggml_backend_is_cpu(ptr noundef readonly %0) local_unnamed_addr #0 {
  %.not = icmp eq ptr %0, null
  br i1 %.not, label %5, label %2

2:                                                ; preds = %1
  %3 = load ptr, ptr %0, align 8, !tbaa !22
  %4 = tail call zeroext i1 @ggml_guid_matches(ptr noundef %3, ptr noundef nonnull @_ZZL21ggml_backend_cpu_guidvE4guid)
  br label %5

5:                                                ; preds = %2, %1
  %6 = phi i1 [ false, %1 ], [ %4, %2 ]
  ret i1 %6
}